target datalayout = "e-m:e-p270:32:32-p271:32:32-p272:64:64-i64:64-i128:128-f80:128-n8:16:32:64-S128"
target triple = "x86_64-pc-linux-gnu"

%"struct.duckdb_libpgquery::PGDefElem" = type { i32, ptr, ptr, ptr, i32, i32 }

; Function Attrs: mustprogress uwtable
define hidden noundef ptr @_ZN17duckdb_libpgquery19makeDefElemExtendedEPKcS1_PNS_6PGNodeENS_15PGDefElemActionEi(ptr noundef %0, ptr noundef %1, ptr noundef %2, i32 noundef %3, i32 noundef %4) #0 {
  %6 = alloca ptr, align 8
  %7 = alloca ptr, align 8
  %8 = alloca ptr, align 8
  %9 = alloca i32, align 4
  %10 = alloca i32, align 4
  %11 = alloca ptr, align 8
  store ptr %0, ptr %6, align 8, !tbaa !23
  store ptr %1, ptr %7, align 8, !tbaa !23
  store ptr %2, ptr %8, align 8, !tbaa !10
  store i32 %3, ptr %9, align 4, !tbaa !67
  store i32 %4, ptr %10, align 4, !tbaa !12
  call void @llvm.lifetime.start.p0(i64 8, ptr %11) #3
  %12 = call noundef ptr @_ZN17duckdb_libpgquery7newNodeEmNS_9PGNodeTagE(i64 noundef 40, i32 noundef 376)
  store ptr %12, ptr %11, align 8, !tbaa !58
  %13 = load ptr, ptr %6, align 8, !tbaa !23
  %14 = load ptr, ptr %11, align 8, !tbaa !58
  %15 = getelementptr inbounds nuw %"struct.duckdb_libpgquery::PGDefElem", ptr %14, i32 0, i32 1
  store ptr %13, ptr %15, align 8, !tbaa !60
  %16 = load ptr, ptr %7, align 8, !tbaa !23
  %17 = load ptr, ptr %11, align 8, !tbaa !58
  %18 = getelementptr inbounds nuw %"struct.duckdb_libpgquery::PGDefElem", ptr %17, i32 0, i32 2
  store ptr %16, ptr %18, align 8, !tbaa !63
  %19 = load ptr, ptr %8, align 8, !tbaa !10
  %20 = load ptr, ptr %11, align 8, !tbaa !58
  %21 = getelementptr inbounds nuw %"struct.duckdb_libpgquery::PGDefElem", ptr %20, i32 0, i32 3
  store ptr %19, ptr %21, align 8, !tbaa !64
  %22 = load i32, ptr %9, align 4, !tbaa !67
  %23 = load ptr, ptr %11, align 8, !tbaa !58
  %24 = getelementptr inbounds nuw %"struct.duckdb_libpgquery::PGDefElem", ptr %23, i32 0, i32 4
  store i32 %22, ptr %24, align 8, !tbaa !65
  %25 = load i32, ptr %10, align 4, !tbaa !12
  %26 = load ptr, ptr %11, align 8, !tbaa !58
  %27 = getelementptr inbounds nuw %"struct.duckdb_libpgquery::PGDefElem", ptr %26, i32 0, i32 5
  store i32 %25, ptr %27, align 4, !tbaa !66
  %28 = load ptr, ptr %11, align 8, !tbaa !58
  call void @llvm.lifetime.end.p0(i64 8, ptr %11) #3
  ret ptr %28
}