; Function Attrs: mustprogress uwtable
define hidden noundef ptr @_ZN17duckdb_libpgquery19makeDefElemExtendedEPKcS1_PNS_6PGNodeENS_15PGDefElemActionEi(ptr noundef %0, ptr noundef %1, ptr noundef %2, i32 noundef %3, i32 noundef %4) local_unnamed_addr #0 {
  %6 = tail call noundef ptr @_ZN17duckdb_libpgquery7newNodeEmNS_9PGNodeTagE(i64 noundef 40, i32 noundef 376)
  %7 = getelementptr inbounds nuw i8, ptr %6, i64 8
  store ptr %0, ptr %7, align 8, !tbaa !43
  %8 = getelementptr inbounds nuw i8, ptr %6, i64 16
  store ptr %1, ptr %8, align 8, !tbaa !46
  %9 = getelementptr inbounds nuw i8, ptr %6, i64 24
  store ptr %2, ptr %9, align 8, !tbaa !47
  %10 = getelementptr inbounds nuw i8, ptr %6, i64 32
  store i32 %3, ptr %10, align 8, !tbaa !48
  %11 = getelementptr inbounds nuw i8, ptr %6, i64 36
  store i32 %4, ptr %11, align 4, !tbaa !49
  ret ptr %6
}